; Function Attrs: mustprogress nounwind memory(argmem: readwrite, inaccessiblemem: write) uwtable
define void @_ZN8facebook5velox5cache19AsyncDataCacheEntry12addReferenceEv(ptr nocapture noundef nonnull align 8 dereferenceable(169) %this) local_unnamed_addr #6 align 2 {
entry:
  %numPins_.i = getelementptr inbounds i8, ptr %this, i64 116
  %0 = load atomic i32, ptr %numPins_.i seq_cst, align 4
  %cmp.i = icmp eq i32 %0, -10000
  br i1 %cmp.i, label %if.then, label %if.end

if.then:                                          ; preds = %entry
  tail call void @llvm.trap()
  unreachable

if.end:                                           ; preds = %entry
  %1 = atomicrmw add ptr %numPins_.i, i32 1 seq_cst, align 4
  ret void
}